; Function Attrs: mustprogress uwtable
define noalias noundef nonnull ptr @_Z54grpc_fake_transport_security_server_credentials_createv() local_unnamed_addr #3 personality ptr @__gxx_personality_v0 {
invoke.cont:
  %call = tail call noalias noundef nonnull dereferenceable(40) ptr @_Znwm(i64 noundef 40) #22
  %refs_.i.i.i = getelementptr inbounds i8, ptr %call, i64 8
  store i64 1, ptr %refs_.i.i.i, align 8
  %processor_.i.i = getelementptr inbounds i8, ptr %call, i64 16
  tail call void @llvm.memset.p0.i64(ptr noundef nonnull align 8 dereferenceable(24) %processor_.i.i, i8 0, i64 24, i1 false)
  store ptr getelementptr inbounds ({ [6 x ptr] }, ptr @_ZTV28grpc_fake_server_credentials, i64 0, i32 0, i64 2), ptr %call, align 8
  ret ptr %call
}